(dp1
(I-1
I0
I0
I3
tp2
(dp3
S'GO_STRAIGHT'
p4
I0
sS'GO_LEFT'
p5
F-800
sS'GO_RIGHT'
p6
F-1.3760000000000003
ss(I0
I0
I1
I4
tp7
(dp8
g4
F65.548199137359688
sg5
F-2.2255323519375128
sg6
I0
ss(I1
I0
I0
I2
tp9
(dp10
g4
I0
sg5
F48.300235655186661
sg6
I0
ss(I0
I0
I1
I2
tp11
(dp12
g4
I0
sg5
I0
sg6
F18.344052765327159
ss(I0
I-1
I0
I2
tp13
(dp14
g4
F-2.3649874083840001
sg5
F-0.47930567926803325
sg6
F-960
ss(I0
I0
I0
I2
tp15
(dp16
g4
F-7.5826770764190545
sg5
F-2.8097869931239083
sg6
F-1.2821030828751765
ss(I0
I-1
I0
I1
tp17
(dp18
g4
I0
sg5
F-2.1822050802897843
sg6
F-960
ss(I0
I1
I0
I3
tp19
(dp20
g4
I0
sg5
F-2.6807013080327513
sg6
I0
ss(I0
I0
I-1
I4
tp21
(dp22
g4
I0
sg5
F-0.80000000000000004
sg6
F-0.80000000000000004
ss(I-1
I0
I0
I2
tp23
(dp24
g4
I0
sg5
F40
sg6
I0
ss(I0
I0
I-1
I3
tp25
(dp26
g4
F-800
sg5
F-0.95999999999999996
sg6
F-0.80000000000000004
ss(I-1
I0
I0
I1
tp27
(dp28
g4
F-2.1677415693393685
sg5
I0
sg6
I0
ss(I-1
I0
I0
I4
tp29
(dp30
g4
F0.53335490964208843
sg5
F-800
sg6
I0
ss(I1
I0
I0
I3
tp31
(dp32
g4
I0
sg5
F46.880429138909271
sg6
I0
ss(I0
I0
I1
I3
tp33
(dp34
g4
I0
sg5
F-2.5963833448186722
sg6
F-1.5606868677854366
ss(I0
I0
I0
I1
tp35
(dp36
g4
F-6.9980528979301866
sg5
F-8.8951199984173837
sg6
F-7.1993424150991494
ss(I0
I0
I0
I4
tp37
(dp38
g4
F-5.8093990465321461
sg5
F25.1922351008294
sg6
F-2.2067335482557784
ss(I-1
I-1
I0
I3
tp39
(dp40
g4
I0
sg5
F-960
sg6
I0
ss(I0
I0
I-1
I2
tp41
(dp42
g4
I0
sg5
F-0.80000000000000004
sg6
I0
ss(I0
I0
I-1
I1
tp43
(dp44
g4
I0
sg5
F-0.80000000000000004
sg6
I0
ss(I1
I0
I0
I1
tp45
(dp46
g4
F-7.0316054776451455
sg5
F38.145535447252449
sg6
I0
ss(I0
I-1
I0
I4
tp47
(dp48
g4
F0.47277762419174096
sg5
F-2.0263097607756184
sg6
F-792
ss(I0
I1
I0
I4
tp49
(dp50
g4
I0
sg5
F-3.0945389666968679
sg6
F67.26237916467116
ss(I0
I-1
I0
I3
tp51
(dp52
g4
F25.262323075620589
sg5
F-2.1560797170381467
sg6
F-800
ss(I0
I0
I0
I3
tp53
(dp54
g4
F-7.0708499959800264
sg5
F6.4395341876723826
sg6
F-6.950725038078831
ss(I0
I1
I0
I2
tp55
(dp56
g4
I0
sg5
F-0.80000000000000004
sg6
F48.690887123224563
ss.