(dp1
(I-1
I0
I1
I4
tp2
(dp3
S'GO_STRAIGHT'
p4
F365.70599417121093
sS'GO_LEFT'
p5
F-992
sS'GO_RIGHT'
p6
F37.011736437606693
ss(I-1
I0
I1
I1
tp7
(dp8
g4
F450.30126290187883
sg5
F-992
sg6
F49.163329331601808
ss(I1
I-1
I0
I3
tp9
(dp10
g4
F89.241735688067962
sg5
F419.13535256342465
sg6
I0
ss(I0
I-1
I-1
I1
tp11
(dp12
g4
F-999.9999999986893
sg5
F55.805606800329159
sg6
F-999.99999996723204
ss(I1
I0
I-1
I4
tp13
(dp14
g4
I0
sg5
F408.10404869594743
sg6
I0
ss(I0
I-1
I-1
I4
tp15
(dp16
g4
F-999.99999983615999
sg5
F154.6006277043532
sg6
F-999.99999999344641
ss(I1
I1
I0
I3
tp17
(dp18
g4
I0
sg5
F291.93392518966914
sg6
I0
ss(I1
I-1
I0
I1
tp19
(dp20
g4
F23.714031429204628
sg5
F353.83834251306428
sg6
F-800
ss(I0
I1
I0
I3
tp21
(dp22
g4
F171.91453724949974
sg5
F38.284486806907751
sg6
F904.10028194831477
ss(I-1
I-1
I1
I3
tp23
(dp24
g4
I0
sg5
F-800
sg6
I0
ss(I-1
I-1
I1
I4
tp25
(dp26
g4
I0
sg5
F-800
sg6
I0
ss(I1
I0
I-1
I3
tp27
(dp28
g4
I0
sg5
F358.54102125974742
sg6
F40.234361202923388
ss(I0
I0
I-1
I2
tp29
(dp30
g4
F-999.99989350400006
sg5
F32.722264427662765
sg6
F254.73695752452664
ss(I1
I0
I-1
I2
tp31
(dp32
g4
F-960
sg5
F378.75026683370783
sg6
I0
ss(I0
I-1
I1
I3
tp33
(dp34
g4
F428.58847701965851
sg5
F38.122289228898147
sg6
F-800
ss(I0
I0
I0
I1
tp35
(dp36
g4
F60.748265848604142
sg5
F512.1138656874316
sg6
F61.46569155532147
ss(I-1
I0
I-1
I2
tp37
(dp38
g4
F-991.67999999999961
sg5
F-999.99999999344641
sg6
F102.727524889751
ss(I0
I0
I0
I4
tp39
(dp40
g4
F103.4997527751762
sg5
F97.062844334973448
sg6
F97.683035092393624
ss(I1
I-1
I0
I4
tp41
(dp42
g4
F201.31314457457
sg5
F704.07316060316339
sg6
F-960
ss(I1
I-1
I1
I4
tp43
(dp44
g4
I0
sg5
F746.19272637118206
sg6
I0
ss(I1
I1
I1
I3
tp45
(dp46
g4
I0
sg5
F363.47376406986706
sg6
I0
ss(I-1
I1
I-1
I1
tp47
(dp48
g4
F-800
sg5
F-960
sg6
I0
ss(I0
I0
I-1
I1
tp49
(dp50
g4
F-958.39999999999998
sg5
F49.363554638648793
sg6
F-114.30951471137109
ss(I-1
I1
I-1
I2
tp51
(dp52
g4
I0
sg5
F-800
sg6
F496.34156398018774
ss(I0
I1
I-1
I2
tp53
(dp54
g4
F-960
sg5
F17.064464942310963
sg6
I0
ss(I0
I1
I1
I2
tp55
(dp56
g4
I0
sg5
F96.854399145052497
sg6
I0
ss(I-1
I-1
I0
I4
tp57
(dp58
g4
F56.666338465318717
sg5
F-999.99999918080005
sg6
F-999.99999918080005
ss(I0
I1
I-1
I4
tp59
(dp60
g4
F-960
sg5
F96.146381796459153
sg6
F-398.78678319218466
ss(I-1
I-1
I0
I2
tp61
(dp62
g4
F67.973268088888972
sg5
F-999.99999999994759
sg6
F-999.99999999999955
ss(I0
I0
I1
I4
tp63
(dp64
g4
F808.54940837051379
sg5
F167.49646492801531
sg6
F56.724111752039306
ss(I1
I0
I0
I2
tp65
(dp66
g4
F249.84030750332863
sg5
F571.20682400597343
sg6
F152.91442896313001
ss(I0
I0
I1
I1
tp67
(dp68
g4
F658.99890425256478
sg5
F47.30048089399537
sg6
F87.549126806590237
ss(I0
I0
I1
I2
tp69
(dp70
g4
F788.47723417839802
sg5
F10.189954290353498
sg6
F141.97352282937396
ss(I-1
I1
I1
I4
tp71
(dp72
g4
I0
sg5
F-800
sg6
I0
ss(I0
I-1
I0
I2
tp73
(dp74
g4
F31.635767937918487
sg5
F30.089753592600768
sg6
F-999.99946752000005
ss(I0
I-1
I0
I1
tp75
(dp76
g4
F24.850141424160984
sg5
F25.761062669313212
sg6
F-1000
ss(I-1
I0
I1
I2
tp77
(dp78
g4
F440.89331800527896
sg5
F-998.39999999999998
sg6
F57.798497018021621
ss(I0
I-1
I-1
I3
tp79
(dp80
g4
F-999.99999999999955
sg5
F357.24936901397729
sg6
F-999.99999999344641
ss(I1
I1
I0
I2
tp81
(dp82
g4
I0
sg5
F322.94269353440671
sg6
I0
ss(I1
I1
I0
I1
tp83
(dp84
g4
I0
sg5
F296.80242651386442
sg6
I0
ss(I1
I1
I0
I4
tp85
(dp86
g4
I0
sg5
F322.7316292419946
sg6
I0
ss(I-1
I-1
I-1
I3
tp87
(dp88
g4
F-999.98720000000003
sg5
F-999.99743999999998
sg6
F-999.99743999999998
ss(I-1
I1
I0
I4
tp89
(dp90
g4
F38.425926878985045
sg5
F-992
sg6
F521.27803129886377
ss(I-1
I1
I0
I1
tp91
(dp92
g4
F31.469020061311461
sg5
F-960
sg6
F376.52081217697565
ss(I0
I-1
I1
I1
tp93
(dp94
g4
F706.35061958345045
sg5
F62.504251105845206
sg6
I0
ss(I1
I0
I1
I3
tp95
(dp96
g4
I0
sg5
F329.98384279552994
sg6
I0
ss(I-1
I0
I-1
I1
tp97
(dp98
g4
F-999.99999999973784
sg5
F-999.99948800000004
sg6
F108.65156484589932
ss(I0
I0
I0
I3
tp99
(dp100
g4
F109.23074761235077
sg5
F51.263425149478806
sg6
F126.96085418246903
ss(I-1
I0
I0
I3
tp101
(dp102
g4
F48.374902685608824
sg5
F-1000
sg6
F53.311050577921137
ss(I-1
I1
I-1
I3
tp103
(dp104
g4
I0
sg5
F-800
sg6
F514.12717646960391
ss(I-1
I1
I-1
I4
tp105
(dp106
g4
I0
sg5
F-800
sg6
F402.35547901431545
ss(I0
I1
I-1
I3
tp107
(dp108
g4
I0
sg5
F-44.14671121579994
sg6
F366.08182397066588
ss(I0
I1
I1
I1
tp109
(dp110
g4
F365.5614472729967
sg5
F57.373497558950007
sg6
I0
ss(I0
I1
I1
I4
tp111
(dp112
g4
F571.18484347366325
sg5
F281.2446277461525
sg6
I0
ss(I-1
I-1
I0
I1
tp113
(dp114
g4
F26.015597742788351
sg5
F-999.99999983615999
sg6
F-999.99989760000005
ss(I1
I0
I0
I3
tp115
(dp116
g4
F68.824351264127074
sg5
F489.0820023949675
sg6
F38.335559256336488
ss(I0
I0
I1
I3
tp117
(dp118
g4
F487.51420122571449
sg5
F129.1945821356162
sg6
F270.44056170045138
ss(I-1
I1
I0
I3
tp119
(dp120
g4
F214.09890839838485
sg5
F-999.93600000000004
sg6
F422.9815390282871
ss(I-1
I0
I1
I3
tp121
(dp122
g4
F386.47603441517214
sg5
F-960
sg6
F-0.933552116724648
ss(I1
I0
I-1
I1
tp123
(dp124
g4
I0
sg5
F593.67762305147858
sg6
I0
ss(I1
I-1
I0
I2
tp125
(dp126
g4
F22.755153366904075
sg5
F366.6858154970468
sg6
F-800
ss(I0
I-1
I-1
I2
tp127
(dp128
g4
F-999.93343999868932
sg5
F141.31740379468721
sg6
F-999.99999983615999
ss(I1
I0
I0
I4
tp129
(dp130
g4
F95.632545149729069
sg5
F730.65461646501831
sg6
F44.906456727351994
ss(I0
I1
I0
I4
tp131
(dp132
g4
F98.885780475743957
sg5
F54.270967259988012
sg6
F738.62659854042636
ss(I-1
I-1
I-1
I2
tp133
(dp134
g4
F-998.39999999999998
sg5
F-999.67999999999995
sg6
F-998.33548800000005
ss(I0
I1
I0
I1
tp135
(dp136
g4
F69.44067528199065
sg5
F34.338482834288122
sg6
F672.98981692442896
ss(I-1
I-1
I-1
I1
tp137
(dp138
g4
F-999.67999999999995
sg5
F-999.93600000000004
sg6
F-999.93600000000004
ss(I1
I-1
I-1
I3
tp139
(dp140
g4
F-960
sg5
F440.43655909345995
sg6
I0
ss(I0
I1
I0
I2
tp141
(dp142
g4
F102.81673280624003
sg5
F34.188694916410086
sg6
F366.40776968930544
ss(I-1
I-1
I-1
I4
tp143
(dp144
g4
F-999.67999999999995
sg5
F-999.93600000000004
sg6
F-999.67999999999995
ss(I-1
I-1
I1
I1
tp145
(dp146
g4
I0
sg5
I0
sg6
I0
ss(I1
I-1
I-1
I2
tp147
(dp148
g4
I0
sg5
F382.01809679684504
sg6
I0
ss(I-1
I-1
I1
I2
tp149
(dp150
g4
I0
sg5
F-800
sg6
F-800
ss(I-1
I1
I0
I2
tp151
(dp152
g4
F94.894367489501263
sg5
F-998.39999999999998
sg6
F378.13336814001224
ss(I1
I-1
I-1
I1
tp153
(dp154
g4
I0
sg5
F421.26647460738025
sg6
F-960
ss(I-1
I0
I-1
I4
tp155
(dp156
g4
F-999.99999918080005
sg5
F-999.99999983615999
sg6
F53.313236445926869
ss(I0
I-1
I1
I2
tp157
(dp158
g4
F403.10877997100067
sg5
F216.98229914061207
sg6
I0
ss(I1
I0
I1
I2
tp159
(dp160
g4
I0
sg5
F482.1718195860509
sg6
I0
ss(I1
I0
I1
I1
tp161
(dp162
g4
I0
sg5
F311.44716678436924
sg6
I0
ss(I0
I0
I0
I2
tp163
(dp164
g4
F27.728339318527354
sg5
F29.74939580957005
sg6
F30.954003088464685
ss(I0
I-1
I1
I4
tp165
(dp166
g4
I0
sg5
F115.16633228144809
sg6
I0
ss(I1
I0
I1
I4
tp167
(dp168
g4
I0
sg5
F487.79969104770851
sg6
I0
ss(I0
I0
I-1
I4
tp169
(dp170
g4
F-999.99999999318425
sg5
F206.80757072059427
sg6
F31.579374260419925
ss(I-1
I0
I0
I2
tp171
(dp172
g4
F30.860850894393174
sg5
F-1000
sg6
F34.641656411481954
ss(I0
I0
I-1
I3
tp173
(dp174
g4
F-1000
sg5
F43.056472471667803
sg6
F258.75899043417053
ss(I-1
I0
I0
I1
tp175
(dp176
g4
F23.095448228054888
sg5
F-1000
sg6
F43.005986494092724
ss(I-1
I0
I0
I4
tp177
(dp178
g4
F108.91613577994225
sg5
F-1000
sg6
F45.641435086459893
ss(I0
I1
I-1
I1
tp179
(dp180
g4
F-800
sg5
F57.512365552599817
sg6
F330.76620190227902
ss(I0
I1
I1
I3
tp181
(dp182
g4
I0
sg5
F174.80942314012634
sg6
I0
ss(I-1
I0
I-1
I3
tp183
(dp184
g4
F-999.9999999986893
sg5
F-999.99999999344641
sg6
F105.5691237619173
ss(I-1
I-1
I0
I3
tp185
(dp186
g4
F304.19601552550245
sg5
F-999.99999983615999
sg6
F-999.99999996723204
ss(I1
I-1
I-1
I4
tp187
(dp188
g4
I0
sg5
F483.97532941824767
sg6
F-800
ss(I-1
I1
I1
I3
tp189
(dp190
g4
I0
sg5
F-800
sg6
I0
ss(I1
I0
I0
I1
tp191
(dp192
g4
F69.348005543366057
sg5
F607.33207686892683
sg6
F96.273998207701368
ss(I0
I-1
I0
I4
tp193
(dp194
g4
F97.470809180436191
sg5
F107.58955575217631
sg6
F-1000
ss(I0
I-1
I0
I3
tp195
(dp196
g4
F153.97255952922944
sg5
F148.14316414251621
sg6
F-999.99999999999784
ss.