(dp1
(I-1
I0
I1
I4
tp2
(dp3
S'GO_STRAIGHT'
p4
F348.42456773152026
sS'GO_LEFT'
p5
F-960
sS'GO_RIGHT'
p6
F47.440040462667675
ss(I-1
I0
I1
I1
tp7
(dp8
g4
F547.41019691003544
sg5
F-960
sg6
F16.764525677123046
ss(I1
I-1
I0
I3
tp9
(dp10
g4
F81.781495998425314
sg5
F417.32557156476759
sg6
I0
ss(I0
I-1
I-1
I1
tp11
(dp12
g4
F-998.39999999999998
sg5
F59.622643699614585
sg6
F-999.98720000000003
ss(I1
I0
I-1
I4
tp13
(dp14
g4
I0
sg5
F436.19685291742701
sg6
I0
ss(I0
I-1
I-1
I4
tp15
(dp16
g4
F-999.99743999999998
sg5
F160.69997490949444
sg6
F-998.39999999999998
ss(I1
I1
I0
I3
tp17
(dp18
g4
I0
sg5
F338.65012617887112
sg6
I0
ss(I1
I-1
I0
I1
tp19
(dp20
g4
I0
sg5
F576.67925915639194
sg6
I0
ss(I0
I1
I0
I3
tp21
(dp22
g4
F285.62114027936826
sg5
F47.532465500174624
sg6
F670.57758860156321
ss(I-1
I-1
I1
I4
tp23
(dp24
g4
I0
sg5
F-960
sg6
F-800
ss(I1
I0
I-1
I3
tp25
(dp26
g4
I0
sg5
F428.25759832036243
sg6
I0
ss(I1
I0
I-1
I2
tp27
(dp28
g4
F-800
sg5
F371.77171620655247
sg6
I0
ss(I0
I-1
I1
I3
tp29
(dp30
g4
F512.20447366529334
sg5
F76.981413782211263
sg6
I0
ss(I0
I0
I0
I1
tp31
(dp32
g4
F12.739430968329604
sg5
F180.41363321965036
sg6
F16.593911031048187
ss(I-1
I0
I-1
I2
tp33
(dp34
g4
F-999.999995904
sg5
F-999.99999918080005
sg6
F75.67512762379728
ss(I0
I0
I0
I4
tp35
(dp36
g4
F154.72944928555484
sg5
F156.43230920590631
sg6
F-5.657533380480257
ss(I1
I-1
I0
I4
tp37
(dp38
g4
F75.920550641730486
sg5
F380.02368840707805
sg6
I0
ss(I1
I-1
I1
I4
tp39
(dp40
g4
I0
sg5
F294.0292124821529
sg6
I0
ss(I0
I0
I-1
I2
tp41
(dp42
g4
F-1000
sg5
F249.58778248178962
sg6
F-27.180840782054588
ss(I-1
I1
I-1
I1
tp43
(dp44
g4
I0
sg5
F-800
sg6
F354.30644387322042
ss(I0
I0
I-1
I1
tp45
(dp46
g4
F-1000
sg5
F-47.953587476623397
sg6
F109.86263655282303
ss(I-1
I1
I-1
I2
tp47
(dp48
g4
I0
sg5
F-800
sg6
F388.14768573508866
ss(I0
I1
I-1
I2
tp49
(dp50
g4
I0
sg5
F52.270415807139585
sg6
I0
ss(I0
I1
I1
I2
tp51
(dp52
g4
I0
sg5
F63.436431851362038
sg6
I0
ss(I-1
I-1
I0
I4
tp53
(dp54
g4
F93.023595845797587
sg5
F-999.99997952000001
sg6
F-999.67999999999995
ss(I0
I1
I-1
I4
tp55
(dp56
g4
I0
sg5
F40.324337672335602
sg6
I0
ss(I-1
I-1
I0
I2
tp57
(dp58
g4
F101.6443986354784
sg5
F-999.98720000000003
sg6
F-960
ss(I0
I0
I1
I4
tp59
(dp60
g4
F791.45428836236169
sg5
F32.135114222263347
sg6
F67.407786420223971
ss(I-1
I1
I1
I2
tp61
(dp62
g4
I0
sg5
F-800
sg6
I0
ss(I1
I0
I0
I2
tp63
(dp64
g4
F52.394149663574012
sg5
F386.86195203847524
sg6
F306.86641597103562
ss(I0
I0
I1
I1
tp65
(dp66
g4
F385.34805727037701
sg5
F101.92213451592366
sg6
F48.663703197620862
ss(I0
I0
I1
I2
tp67
(dp68
g4
F494.90977829821202
sg5
F51.169351551973079
sg6
F51.129268308798657
ss(I0
I-1
I0
I2
tp69
(dp70
g4
F28.176795080824988
sg5
F140.32771405937831
sg6
F-999.99999999999784
ss(I0
I-1
I0
I1
tp71
(dp72
g4
F145.11510490409583
sg5
F13.949768121458979
sg6
F-1000
ss(I-1
I0
I1
I2
tp73
(dp74
g4
I0
sg5
F-992
sg6
F52.21798703211644
ss(I0
I-1
I-1
I3
tp75
(dp76
g4
F-999.99743999999998
sg5
F77.519988109729724
sg6
F-999.93600000000004
ss(I1
I1
I0
I2
tp77
(dp78
g4
I0
sg5
I0
sg6
I0
ss(I1
I1
I0
I4
tp79
(dp80
g4
I0
sg5
F251.74471839352137
sg6
I0
ss(I-1
I-1
I-1
I3
tp81
(dp82
g4
F-999.93600000000004
sg5
F-999.98720000000003
sg6
F-999.93600000000004
ss(I-1
I1
I0
I4
tp83
(dp84
g4
F215.86256595156604
sg5
F-800
sg6
F449.33319101345518
ss(I-1
I1
I0
I1
tp85
(dp86
g4
I0
sg5
F-800
sg6
F925.34415522240283
ss(I0
I-1
I1
I1
tp87
(dp88
g4
F531.35841580930764
sg5
F189.24479641294951
sg6
I0
ss(I1
I0
I1
I3
tp89
(dp90
g4
I0
sg5
F395.56924002038119
sg6
F39.396844979483554
ss(I-1
I0
I-1
I1
tp91
(dp92
g4
F-999.99682559999997
sg5
F-999.99999983615999
sg6
F147.07019096885216
ss(I0
I0
I0
I3
tp93
(dp94
g4
F21.850809578088757
sg5
F18.661124872431397
sg6
F18.441372865433909
ss(I-1
I0
I0
I3
tp95
(dp96
g4
F36.443467373817498
sg5
F-1000
sg6
F58.854009035998821
ss(I-1
I1
I-1
I3
tp97
(dp98
g4
I0
sg5
F-800
sg6
I0
ss(I-1
I1
I-1
I4
tp99
(dp100
g4
I0
sg5
F-800
sg6
F487.73839673711757
ss(I0
I1
I-1
I3
tp101
(dp102
g4
I0
sg5
F81.324168771297508
sg6
F339.6445939634113
ss(I0
I1
I1
I1
tp103
(dp104
g4
I0
sg5
F130.32899317091548
sg6
I0
ss(I0
I1
I1
I4
tp105
(dp106
g4
I0
sg5
F1.6835452889013671
sg6
I0
ss(I-1
I-1
I0
I1
tp107
(dp108
g4
F219.86146143680725
sg5
F-999.67999999999995
sg6
F-999.99989760000005
ss(I1
I0
I0
I3
tp109
(dp110
g4
F66.430284852263242
sg5
F750.32172940176656
sg6
F139.45772992031061
ss(I0
I0
I1
I3
tp111
(dp112
g4
F670.42006279972929
sg5
F70.231025426761903
sg6
F188.37064970886621
ss(I-1
I1
I0
I3
tp113
(dp114
g4
F36.908351967831528
sg5
F-992
sg6
F453.44314464453061
ss(I-1
I0
I1
I3
tp115
(dp116
g4
F586.62818318526752
sg5
F-992
sg6
F33.254151231350576
ss(I1
I0
I-1
I1
tp117
(dp118
g4
I0
sg5
F390.09931090589333
sg6
I0
ss(I1
I-1
I0
I2
tp119
(dp120
g4
I0
sg5
F419.70345463727904
sg6
I0
ss(I0
I-1
I-1
I2
tp121
(dp122
g4
F-960
sg5
F121.74474468938584
sg6
F-999.99743999999998
ss(I1
I-1
I-1
I4
tp123
(dp124
g4
I0
sg5
F265.04808048291591
sg6
I0
ss(I0
I1
I0
I4
tp125
(dp126
g4
F197.55256834551579
sg5
F39.683055074430399
sg6
F784.49224812905402
ss(I-1
I-1
I-1
I2
tp127
(dp128
g4
F-992
sg5
F-998.39999999999998
sg6
F-992
ss(I0
I1
I0
I1
tp129
(dp130
g4
F59.989366696939896
sg5
F160.43963096643455
sg6
F438.35310566681221
ss(I-1
I-1
I-1
I1
tp131
(dp132
g4
F-992
sg5
F-990.08000000000004
sg6
F-992
ss(I1
I-1
I-1
I3
tp133
(dp134
g4
I0
sg5
F353.19404807696816
sg6
I0
ss(I0
I1
I0
I2
tp135
(dp136
g4
F69.5282479694053
sg5
F89.684815641568576
sg6
F443.99374542361318
ss(I-1
I-1
I-1
I4
tp137
(dp138
g4
F-992
sg5
F-998.39999999999998
sg6
F-999.67999999999995
ss(I-1
I-1
I1
I1
tp139
(dp140
g4
I0
sg5
F-800
sg6
F-800
ss(I1
I-1
I-1
I2
tp141
(dp142
g4
I0
sg5
F785.78254216182006
sg6
I0
ss(I-1
I-1
I1
I2
tp143
(dp144
g4
F528.49257702938269
sg5
F-800
sg6
I0
ss(I-1
I1
I0
I2
tp145
(dp146
g4
I0
sg5
F-960
sg6
F762.43073720674511
ss(I1
I-1
I-1
I1
tp147
(dp148
g4
I0
sg5
I0
sg6
F-800
ss(I-1
I0
I-1
I4
tp149
(dp150
g4
F-999.99997952000001
sg5
F-999.98720000000003
sg6
F39.551460288515784
ss(I0
I-1
I1
I2
tp151
(dp152
g4
F547.10890197571712
sg5
F18.025209569915972
sg6
I0
ss(I1
I0
I1
I2
tp153
(dp154
g4
F338.85067266960141
sg5
F256.58947592407725
sg6
I0
ss(I1
I0
I1
I1
tp155
(dp156
g4
I0
sg5
F246.48795624909118
sg6
I0
ss(I0
I0
I0
I2
tp157
(dp158
g4
F54.66484882506785
sg5
F148.82498577799058
sg6
F91.207332567311198
ss(I0
I-1
I1
I4
tp159
(dp160
g4
F557.41503862553145
sg5
F124.22734694094277
sg6
I0
ss(I1
I0
I1
I4
tp161
(dp162
g4
I0
sg5
F341.27120059458616
sg6
I0
ss(I0
I0
I-1
I4
tp163
(dp164
g4
F-999.66719999998907
sg5
F40.882362803615692
sg6
F38.408839855320238
ss(I-1
I0
I0
I2
tp165
(dp166
g4
F60.012349847350343
sg5
F-1000
sg6
F44.22554630497234
ss(I0
I0
I-1
I3
tp167
(dp168
g4
F-1000
sg5
F96.63847260443967
sg6
F-713.6952334948669
ss(I-1
I0
I0
I1
tp169
(dp170
g4
F23.622822085718376
sg5
F-1000
sg6
F226.97155182526336
ss(I-1
I0
I0
I4
tp171
(dp172
g4
F33.475995063345536
sg5
F-1000
sg6
F160.58872765406889
ss(I0
I1
I-1
I1
tp173
(dp174
g4
I0
sg5
F92.42218805491305
sg6
I0
ss(I0
I1
I1
I3
tp175
(dp176
g4
F614.79955219256613
sg5
F61.847702476009573
sg6
I0
ss(I-1
I0
I-1
I3
tp177
(dp178
g4
F-999.99997952000001
sg5
F-999.99999996723204
sg6
F47.169040897274655
ss(I-1
I-1
I0
I3
tp179
(dp180
g4
F56.982827631569968
sg5
F-998.39999999999998
sg6
F-999.99997952000001
ss(I1
I0
I0
I4
tp181
(dp182
g4
F206.89054544674934
sg5
F363.85194777135308
sg6
F24.353866388153182
ss(I1
I0
I0
I1
tp183
(dp184
g4
F52.42606559350655
sg5
F660.91590894947433
sg6
F424.97661423370766
ss(I1
I1
I-1
I1
tp185
(dp186
g4
I0
sg5
F277.86105215069364
sg6
I0
ss(I0
I-1
I0
I4
tp187
(dp188
g4
F38.320835238889501
sg5
F24.609111966669815
sg6
F-1000
ss(I0
I-1
I0
I3
tp189
(dp190
g4
F7.9997398183865878
sg5
F68.307521390013335
sg6
F-1000
ss.