(dp1
(I-1
I0
I0
I3
tp2
(dp3
S'GO_STRAIGHT'
p4
I0
sS'GO_LEFT'
p5
F-800
sS'GO_RIGHT'
p6
I0
ss(I0
I0
I1
I1
tp7
(dp8
g4
F238.7627732851675
sg5
F-1.7164520687839131
sg6
F-1.3760000000000003
ss(I0
I-1
I0
I2
tp9
(dp10
g4
I0
sg5
F-2.2766569311951188
sg6
F-800
ss(I0
I0
I0
I2
tp11
(dp12
g4
F-8.4219889572552731
sg5
F-8.3490746543685734
sg6
F-2.4540926734008579
ss(I0
I-1
I0
I1
tp13
(dp14
g4
F-6.6359940925146272
sg5
F-4.6001814037131856
sg6
F-800
ss(I0
I0
I-1
I4
tp15
(dp16
g4
I0
sg5
F-0.80000000000000004
sg6
F-0.80000000000000004
ss(I-1
I0
I0
I2
tp17
(dp18
g4
I0
sg5
F-800
sg6
I0
ss(I0
I0
I-1
I3
tp19
(dp20
g4
I0
sg5
I0
sg6
F-0.80000000000000004
ss(I-1
I0
I0
I1
tp21
(dp22
g4
F-7.0188473239407712
sg5
F-800
sg6
F-7.1981550576544846
ss(I-1
I0
I0
I4
tp23
(dp24
g4
I0
sg5
F-800
sg6
I0
ss(I1
I0
I0
I3
tp25
(dp26
g4
I0
sg5
F534.192605462031
sg6
I0
ss(I0
I0
I1
I3
tp27
(dp28
g4
I0
sg5
F-1.8421868295167592
sg6
I0
ss(I0
I0
I0
I1
tp29
(dp30
g4
F-7.723984097213763
sg5
F-7.4914879513941006
sg6
F-8.5742116958479198
ss(I0
I0
I0
I4
tp31
(dp32
g4
F-8.0465926052531991
sg5
F-8.0599589735795707
sg6
F-5.0118498099436728
ss(I1
I-1
I0
I1
tp33
(dp34
g4
I0
sg5
F240
sg6
I0
ss(I0
I0
I-1
I2
tp35
(dp36
g4
F-800
sg5
F-0.80000000000000004
sg6
F-0.80000000000000004
ss(I0
I0
I-1
I1
tp37
(dp38
g4
F-960
sg5
F-4.3271063001251173
sg6
F-4.8861631185554177
ss(I-1
I1
I0
I1
tp39
(dp40
g4
I0
sg5
F-800
sg6
I0
ss(I1
I0
I0
I4
tp41
(dp42
g4
I0
sg5
F246.36886348996279
sg6
I0
ss(I1
I0
I0
I1
tp43
(dp44
g4
I0
sg5
F238.78768171251087
sg6
I0
ss(I0
I-1
I0
I4
tp45
(dp46
g4
I0
sg5
F-1.9877259316787788
sg6
I0
ss(I0
I-1
I0
I3
tp47
(dp48
g4
I0
sg5
F-0.3456389116383991
sg6
F-800
ss(I0
I1
I0
I1
tp49
(dp50
g4
I0
sg5
F-2.2890979092489832
sg6
F239.03480598469821
ss(I0
I0
I0
I3
tp51
(dp52
g4
F123.53042246003722
sg5
F-4.5421929336246034
sg6
F23.979000740178051
ss.