(dp1
(I-1
I0
I1
I4
tp2
(dp3
S'GO_STRAIGHT'
p4
I0
sS'GO_LEFT'
p5
F-800
sS'GO_RIGHT'
p6
F-2.699384580183926
ss(I0
I1
I1
I2
tp7
(dp8
g4
I0
sg5
F6.739218059086622
sg6
I0
ss(I-1
I-1
I0
I4
tp9
(dp10
g4
F3.9316825951832577
sg5
F-960
sg6
F-998.39999999999998
ss(I0
I1
I-1
I4
tp11
(dp12
g4
I0
sg5
F-4.6733164592067062
sg6
F113.87626246236633
ss(I-1
I0
I1
I1
tp13
(dp14
g4
I0
sg5
F-800
sg6
F1.791924871432762
ss(I1
I-1
I0
I3
tp15
(dp16
g4
I0
sg5
F116.95789241501024
sg6
I0
ss(I-1
I0
I0
I3
tp17
(dp18
g4
F-3.1606392286162905
sg5
F-999.99999999397073
sg6
F-6.6910013197344753
ss(I-1
I-1
I0
I2
tp19
(dp20
g4
F71.02682007339402
sg5
F-800
sg6
F-800
ss(I1
I-1
I0
I4
tp21
(dp22
g4
I0
sg5
F132.54308565604717
sg6
I0
ss(I0
I-1
I-1
I4
tp23
(dp24
g4
I0
sg5
F19.563317214032764
sg6
I0
ss(I-1
I1
I-1
I3
tp25
(dp26
g4
I0
sg5
F-800
sg6
I0
ss(I0
I0
I1
I4
tp27
(dp28
g4
F163.98871909152246
sg5
F24.159305046526228
sg6
F4.4299627679202764
ss(I-1
I0
I-1
I4
tp29
(dp30
g4
F-960
sg5
F-992
sg6
F14.001572680784399
ss(I1
I0
I0
I2
tp31
(dp32
g4
I0
sg5
F178.78040851396173
sg6
F15.624450942940399
ss(I0
I0
I1
I1
tp33
(dp34
g4
F283.55576537739455
sg5
F11.735473394405341
sg6
F-3.3731893175331495
ss(I0
I-1
I1
I2
tp35
(dp36
g4
F172.58289379583925
sg5
I0
sg6
I0
ss(I1
I0
I1
I2
tp37
(dp38
g4
I0
sg5
F115.06079560392546
sg6
I0
ss(I0
I0
I1
I2
tp39
(dp40
g4
I0
sg5
F-1.5734158219412131
sg6
F28.500340837731255
ss(I0
I-1
I0
I2
tp41
(dp42
g4
F17.043818987210418
sg5
F3.7622641950537798
sg6
F-999.9999998230528
ss(I0
I0
I0
I2
tp43
(dp44
g4
F12.074685295809356
sg5
F28.631766600807442
sg6
F6.900383318053926
ss(I0
I1
I-1
I3
tp45
(dp46
g4
I0
sg5
F23.76828515593283
sg6
I0
ss(I0
I-1
I0
I1
tp47
(dp48
g4
F3.2633537009000584
sg5
F20.891128428333523
sg6
F-999.99999999994759
ss(I0
I1
I0
I3
tp49
(dp50
g4
I0
sg5
F-1.7711298005936063
sg6
F199.43283484222155
ss(I-1
I1
I0
I2
tp51
(dp52
g4
I0
sg5
F-800
sg6
F170.12280769928554
ss(I0
I-1
I0
I4
tp53
(dp54
g4
F7.7574453627097677
sg5
F9.8530368285033028
sg6
F-999.99999996723204
ss(I1
I0
I-1
I4
tp55
(dp56
g4
I0
sg5
F193.32409390945514
sg6
I0
ss(I-1
I0
I1
I2
tp57
(dp58
g4
I0
sg5
F-800
sg6
I0
ss(I0
I1
I1
I4
tp59
(dp60
g4
I0
sg5
F6.7556964425112831
sg6
I0
ss(I0
I0
I-1
I4
tp61
(dp62
g4
F-999.67999999999995
sg5
F10.926344774263132
sg6
F-20.488703886854481
ss(I-1
I0
I0
I2
tp63
(dp64
g4
F1.3493177122416247
sg5
F-999.99999999999795
sg6
F13.60912968722872
ss(I0
I0
I-1
I3
tp65
(dp66
g4
F-964.79989760000001
sg5
F-1.9478580741043849
sg6
F12.554222041978438
ss(I1
I0
I-1
I3
tp67
(dp68
g4
I0
sg5
F109.28850810697344
sg6
F-0.41057035918809381
ss(I-1
I0
I0
I1
tp69
(dp70
g4
F23.407514528844974
sg5
F-999.9999999986893
sg6
F6.8115783362800677
ss(I0
I-1
I0
I3
tp71
(dp72
g4
F-1.0717796339066652
sg5
F0.18564449240452774
sg6
F-999.99999999973784
ss(I1
I0
I-1
I1
tp73
(dp74
g4
I0
sg5
F82.737320633449897
sg6
I0
ss(I1
I1
I0
I2
tp75
(dp76
g4
I0
sg5
F113.99042326536315
sg6
I0
ss(I-1
I0
I0
I4
tp77
(dp78
g4
F17.55975562814066
sg5
F-999.99999999999795
sg6
F7.083766613576147
ss(I1
I0
I0
I3
tp79
(dp80
g4
I0
sg5
F114.86110335893919
sg6
I0
ss(I1
I0
I-1
I2
tp81
(dp82
g4
I0
sg5
F111.7527058509497
sg6
I0
ss(I0
I-1
I1
I3
tp83
(dp84
g4
I0
sg5
F43.236263022577731
sg6
I0
ss(I0
I0
I0
I1
tp85
(dp86
g4
F1.892370609500988
sg5
F2.3959767928624447
sg6
F34.457298476725398
ss(I0
I0
I1
I3
tp87
(dp88
g4
F180.42587798100701
sg5
F2.4000834061293261
sg6
F19.356312603930359
ss(I-1
I-1
I-1
I3
tp89
(dp90
g4
I0
sg5
F-800
sg6
F-800
ss(I-1
I1
I0
I3
tp91
(dp92
g4
I0
sg5
F-800
sg6
F98.892598323944981
ss(I-1
I0
I-1
I2
tp93
(dp94
g4
F-800
sg5
F-800
sg6
F29.131962475420906
ss(I0
I0
I0
I4
tp95
(dp96
g4
F2.8432243345787702
sg5
F-1.2904111512073786
sg6
F6.4222297430240873
ss(I0
I-1
I-1
I3
tp97
(dp98
g4
F-960
sg5
F0.54286353088967454
sg6
F-998.39999999999998
ss(I0
I-1
I-1
I1
tp99
(dp100
g4
F-800
sg5
F23.320233552453544
sg6
F-800
ss(I1
I-1
I1
I1
tp101
(dp102
g4
I0
sg5
F100.42277148835279
sg6
I0
ss(I-1
I0
I1
I3
tp103
(dp104
g4
I0
sg5
F-800
sg6
F32.415485894392404
ss(I0
I1
I1
I3
tp105
(dp106
g4
I0
sg5
F135.9933658403375
sg6
I0
ss(I0
I-1
I1
I4
tp107
(dp108
g4
I0
sg5
F95.840206805207416
sg6
F-800
ss(I1
I-1
I0
I1
tp109
(dp110
g4
I0
sg5
F183.06968205234901
sg6
I0
ss(I0
I0
I-1
I2
tp111
(dp112
g4
F-999.98720000000003
sg5
F8.0499739693212469
sg6
F23.893388641797515
ss(I-1
I1
I0
I4
tp113
(dp114
g4
I0
sg5
F-800
sg6
F102.65057334061137
ss(I0
I-1
I-1
I2
tp115
(dp116
g4
F-992
sg5
F25.741457498101077
sg6
F-800
ss(I-1
I1
I-1
I1
tp117
(dp118
g4
I0
sg5
F-800
sg6
I0
ss(I-1
I-1
I0
I3
tp119
(dp120
g4
F1.5799349775883798
sg5
F-800
sg6
F-960
ss(I-1
I1
I0
I1
tp121
(dp122
g4
I0
sg5
F-800
sg6
F146.3412127498506
ss(I0
I1
I-1
I1
tp123
(dp124
g4
I0
sg5
F4.6459285942730535
sg6
I0
ss(I1
I0
I0
I4
tp125
(dp126
g4
I0
sg5
F124.08604247772672
sg6
F-6.2084085987138273
ss(I1
I-1
I0
I2
tp127
(dp128
g4
I0
sg5
F111.04999725795831
sg6
I0
ss(I0
I0
I-1
I1
tp129
(dp130
g4
F-998.39999999999998
sg5
F18.055675472694944
sg6
F-1.3032922986538429
ss(I1
I1
I0
I3
tp131
(dp132
g4
I0
sg5
F151.10877296226914
sg6
I0
ss(I1
I-1
I-1
I3
tp133
(dp134
g4
I0
sg5
F102.67972128633458
sg6
I0
ss(I0
I-1
I1
I1
tp135
(dp136
g4
I0
sg5
F3.9482882282588783
sg6
I0
ss(I0
I1
I0
I4
tp137
(dp138
g4
I0
sg5
F-1.5442046105708263
sg6
F247.82738521761271
ss(I-1
I-1
I0
I1
tp139
(dp140
g4
F4.5400869452301
sg5
F-800
sg6
F-800
ss(I1
I0
I0
I1
tp141
(dp142
g4
F4.2830191733850995
sg5
F149.55040656790516
sg6
F73.166767799204777
ss(I-1
I0
I-1
I1
tp143
(dp144
g4
I0
sg5
F-800
sg6
F35.628249573608528
ss(I0
I1
I0
I1
tp145
(dp146
g4
F5.4354636746835752
sg5
F57.389400550426416
sg6
F134.72929317568378
ss(I0
I0
I0
I3
tp147
(dp148
g4
F-2.1297105551331974
sg5
F-5.4713269466478929
sg6
F-0.065505912110775721
ss(I0
I1
I-1
I2
tp149
(dp150
g4
I0
sg5
F12.438184282803787
sg6
I0
ss(I-1
I0
I-1
I3
tp151
(dp152
g4
F-800
sg5
F-960
sg6
F1.0077782033459783
ss(I0
I1
I0
I2
tp153
(dp154
g4
F5.2631901249410804
sg5
F25.426086735574966
sg6
F167.05093403124636
ss(I-1
I-1
I-1
I4
tp155
(dp156
g4
F-800
sg5
F-960
sg6
F-800
ss(I1
I-1
I-1
I2
tp157
(dp158
g4
I0
sg5
F88.076178703438401
sg6
I0
ss.