(dp1
(I0
I0
I0
I2
tp2
(dp3
S'GO_STRAIGHT'
p4
F-4.9679460973307492
sS'GO_LEFT'
p5
F-4.4660902786498555
sS'GO_RIGHT'
p6
F-4.8034653201311164
ss(I0
I0
I-1
I4
tp7
(dp8
g4
I0
sg5
F-0.80000000000000004
sg6
I0
ss(I0
I0
I0
I1
tp9
(dp10
g4
I0
sg5
F-0.80000000000000004
sg6
I0
ss(I0
I0
I0
I4
tp11
(dp12
g4
F-1.2765361032948555
sg5
F-4.369183934426121
sg6
F-4.6377174484698269
ss(I0
I-1
I0
I4
tp13
(dp14
g4
F-0.80000000000000004
sg5
F-1.4912000000000001
sg6
F-800
ss(I0
I1
I0
I4
tp15
(dp16
g4
I0
sg5
F-0.80000000000000004
sg6
I0
ss(I1
I0
I0
I2
tp17
(dp18
g4
I0
sg5
F238.76138046536795
sg6
I0
ss(I0
I1
I0
I1
tp19
(dp20
g4
I0
sg5
F-1.8023351091199999
sg6
I0
ss(I0
I0
I0
I3
tp21
(dp22
g4
I0
sg5
F-0.80000000000000004
sg6
F-0.95999999999999996
ss(I0
I0
I1
I2
tp23
(dp24
g4
I0
sg5
I0
sg6
F-3.1823955722240003
ss(I-1
I0
I0
I4
tp25
(dp26
g4
I0
sg5
F-800
sg6
I0
ss.