(dp1
(I0
I0
I0
I2
tp2
(dp3
S'GO_STRAIGHT'
p4
I0
sS'GO_LEFT'
p5
F-0.80000000000000004
sS'GO_RIGHT'
p6
F-0.95999999999999996
ss(I0
I0
I-1
I1
tp7
(dp8
g4
I0
sg5
F-0.80000000000000004
sg6
I0
ss(I0
I-1
I0
I3
tp9
(dp10
g4
I0
sg5
F-2.0317225451815442
sg6
I0
ss(I1
I0
I0
I4
tp11
(dp12
g4
I0
sg5
F80
sg6
I0
ss(I-1
I0
I0
I3
tp13
(dp14
g4
I0
sg5
F-800
sg6
I0
ss(I0
I0
I1
I4
tp15
(dp16
g4
I0
sg5
F-1.867767814075284
sg6
F-2.0795454299420428
ss(I0
I0
I0
I4
tp17
(dp18
g4
F-7.3590529227647234
sg5
F-7.332224861905825
sg6
F-7.3759512544451136
ss(I0
I1
I0
I4
tp19
(dp20
g4
I0
sg5
F-1.9113471253909387
sg6
I0
ss(I-1
I0
I0
I2
tp21
(dp22
g4
I0
sg5
F-800
sg6
I0
ss(I0
I0
I-1
I3
tp23
(dp24
g4
I0
sg5
F-0.80000000000000004
sg6
F-0.80000000000000004
ss(I0
I0
I0
I3
tp25
(dp26
g4
F-1.8132396204948664
sg5
F-5.0321867171234507
sg6
F-5.0694401631564121
ss(I0
I-1
I0
I1
tp27
(dp28
g4
I0
sg5
F-2.0926897369957564
sg6
I0
ss.